; Function Attrs: null_pointer_is_valid sspstrong uwtable
define internal void @dissect_pcep_obj_srp(ptr noundef %0, ptr noundef %1, ptr noundef %2, i32 noundef %3, i32 noundef %4, i32 %5, i32 %6) #0 {
  %8 = icmp slt i32 %4, 12
  br i1 %8, label %9, label %11

9:                                                ; preds = %7
  %10 = tail call ptr (ptr, ptr, ptr, ptr, i32, i32, ptr, ...) @proto_tree_add_expert_format(ptr noundef %0, ptr noundef %1, ptr noundef nonnull @ei_pcep_subobject_bad_length, ptr noundef %2, i32 noundef %3, i32 noundef %4, ptr noundef nonnull @.str.1404, i32 noundef %4, i32 noundef 12)
  br label %24

11:                                               ; preds = %7
  %12 = load i32, ptr @hf_pcep_obj_srp_flags, align 4
  %13 = tail call ptr @proto_tree_add_item(ptr noundef %0, i32 noundef %12, ptr noundef %2, i32 noundef %3, i32 noundef 4, i32 noundef 0)
  %14 = load i32, ptr @ett_pcep_obj_srp, align 4
  %15 = tail call ptr @proto_item_add_subtree(ptr noundef %13, i32 noundef %14)
  %16 = load i32, ptr @hf_pcep_obj_srp_flags_r, align 4
  %17 = tail call ptr @proto_tree_add_item(ptr noundef %15, i32 noundef %16, ptr noundef %2, i32 noundef %3, i32 noundef 4, i32 noundef 0)
  %18 = load i32, ptr @hf_pcep_obj_srp_id_number, align 4
  %19 = add i32 %3, 4
  %20 = tail call ptr @proto_tree_add_item(ptr noundef %0, i32 noundef %18, ptr noundef %2, i32 noundef %19, i32 noundef 4, i32 noundef 0)
  %21 = add i32 %3, 8
  %22 = add nsw i32 %4, -12
  %23 = load i32, ptr @ett_pcep_obj_srp, align 4
  tail call fastcc void @dissect_pcep_tlvs_with_scope(ptr noundef %0, ptr noundef %2, i32 noundef %21, i32 noundef range(i32 0, 2147483640) %22, i32 noundef %23, i16 noundef zeroext 0)
  br label %24

24:                                               ; preds = %11, %9
  ret void
}